target datalayout = "e-m:e-p270:32:32-p271:32:32-p272:64:64-i64:64-i128:128-f80:128-n8:16:32:64-S128"
target triple = "x86_64-pc-linux-gnu"

%struct.darktable_t = type { %struct.dt_codepath_t, i32, i32, ptr, ptr, ptr, ptr, ptr, ptr, ptr, ptr, ptr, ptr, ptr, ptr, ptr, ptr, ptr, ptr, ptr, ptr, ptr, ptr, ptr, ptr, ptr, ptr, ptr, ptr, ptr, [64 x %struct.dt_pthread_mutex_t], %struct.dt_pthread_mutex_t, %struct.dt_pthread_mutex_t, %struct.dt_pthread_mutex_t, %struct.dt_pthread_mutex_t, %struct.dt_pthread_mutex_t, ptr, ptr, ptr, ptr, ptr, ptr, ptr, ptr, ptr, ptr, ptr, ptr, ptr, %struct.dt_lua_state_t, ptr, double, ptr, i32, [47 x i32], i32, i32, ptr, ptr, %struct.dt_sys_resources_t, %struct.dt_backthumb_t, %struct.dt_gimp_t }
%struct.dt_codepath_t = type { i8, [3 x i8] }
%struct.dt_pthread_mutex_t = type { %union.pthread_mutex_t }
%union.pthread_mutex_t = type { %struct.__pthread_mutex_s }
%struct.__pthread_mutex_s = type { i32, i32, i32, i32, i32, i16, i16, %struct.__pthread_internal_list }
%struct.__pthread_internal_list = type { ptr, ptr }
%struct.dt_lua_state_t = type { i32 }
%struct.dt_sys_resources_t = type { i64, i64, ptr, ptr, i32 }
%struct.dt_backthumb_t = type { double, double, i32, i32, i32, i32 }
%struct.dt_gimp_t = type { i32, ptr, ptr, i32, i32 }
%struct.dt_lib_module_t = type { %struct.dt_action_t, ptr, ptr, ptr, ptr, ptr, ptr, ptr, ptr, ptr, ptr, ptr, ptr, ptr, ptr, ptr, ptr, ptr, ptr, ptr, ptr, ptr, ptr, ptr, ptr, ptr, ptr, ptr, ptr, ptr, ptr, [128 x i8], ptr, ptr, i32, ptr, ptr, ptr, i32 }
%struct.dt_action_t = type { i32, ptr, ptr, ptr, ptr, ptr }

@darktable = external global %struct.darktable_t, align 8
@.str.114 = private unnamed_addr constant [5 x i8] c"draw\00", align 1

; Function Attrs: nounwind uwtable
define internal void @dt_lib_init_module(ptr noundef %0) #0 {
  %2 = alloca ptr, align 8
  %3 = alloca ptr, align 8
  store ptr %0, ptr %2, align 8, !tbaa !76
  call void @llvm.lifetime.start.p0(i64 8, ptr %3) #12
  %4 = load ptr, ptr %2, align 8, !tbaa !76
  store ptr %4, ptr %3, align 8, !tbaa !6
  %5 = load ptr, ptr %3, align 8, !tbaa !6
  call void @dt_lib_init_presets(ptr noundef %5)
  %6 = load ptr, ptr getelementptr inbounds nuw (%struct.darktable_t, ptr @darktable, i32 0, i32 14), align 8, !tbaa !141
  %7 = icmp ne ptr %6, null
  br i1 %7, label %8, label %35

8:                                                ; preds = %1
  %9 = load ptr, ptr %3, align 8, !tbaa !6
  %10 = getelementptr inbounds nuw %struct.dt_lib_module_t, ptr %9, i32 0, i32 8
  %11 = load ptr, ptr %10, align 8, !tbaa !202
  %12 = load ptr, ptr %3, align 8, !tbaa !6
  call void %11(ptr noundef %12)
  %13 = load ptr, ptr %3, align 8, !tbaa !6
  %14 = getelementptr inbounds nuw %struct.dt_lib_module_t, ptr %13, i32 0, i32 32
  %15 = load ptr, ptr %14, align 8, !tbaa !105
  %16 = icmp ne ptr %15, null
  br i1 %16, label %17, label %34

17:                                               ; preds = %8
  %18 = load ptr, ptr %3, align 8, !tbaa !6
  %19 = getelementptr inbounds nuw %struct.dt_lib_module_t, ptr %18, i32 0, i32 32
  %20 = load ptr, ptr %19, align 8, !tbaa !105
  %21 = call ptr @g_object_ref_sink(ptr noundef %20)
  %22 = load ptr, ptr %3, align 8, !tbaa !6
  %23 = getelementptr inbounds nuw %struct.dt_lib_module_t, ptr %22, i32 0, i32 11
  %24 = load ptr, ptr %23, align 8, !tbaa !106
  %25 = icmp ne ptr %24, null
  br i1 %25, label %26, label %33

26:                                               ; preds = %17
  %27 = load ptr, ptr %3, align 8, !tbaa !6
  %28 = getelementptr inbounds nuw %struct.dt_lib_module_t, ptr %27, i32 0, i32 32
  %29 = load ptr, ptr %28, align 8, !tbaa !105
  %30 = call ptr @g_type_check_instance_cast(ptr noundef %29, i64 noundef 80)
  %31 = load ptr, ptr %3, align 8, !tbaa !6
  %32 = call i64 @g_signal_connect_data(ptr noundef %30, ptr noundef @.str.114, ptr noundef @_lib_draw_callback, ptr noundef %31, ptr noundef null, i32 noundef 0)
  br label %33

33:                                               ; preds = %26, %17
  br label %34

34:                                               ; preds = %33, %8
  br label %35

35:                                               ; preds = %34, %1
  call void @llvm.lifetime.end.p0(i64 8, ptr %3) #12
  ret void
}