; Function Attrs: nounwind uwtable
define internal void @dt_lib_init_module(ptr noundef %0) #0 {
  tail call void @dt_lib_init_presets(ptr noundef %0)
  %2 = load ptr, ptr getelementptr inbounds nuw (i8, ptr @darktable, i64 104), align 8, !tbaa !105
  %.not = icmp eq ptr %2, null
  br i1 %.not, label %16, label %3

3:                                                ; preds = %1
  %4 = getelementptr inbounds nuw i8, ptr %0, i64 104
  %5 = load ptr, ptr %4, align 8, !tbaa !168
  tail call void %5(ptr noundef %0) #19
  %6 = getelementptr inbounds nuw i8, ptr %0, i64 416
  %7 = load ptr, ptr %6, align 8, !tbaa !84
  %.not9 = icmp eq ptr %7, null
  br i1 %.not9, label %16, label %8

8:                                                ; preds = %3
  %9 = tail call ptr @g_object_ref_sink(ptr noundef nonnull %7) #19
  %10 = getelementptr inbounds nuw i8, ptr %0, i64 128
  %11 = load ptr, ptr %10, align 8, !tbaa !85
  %.not10 = icmp eq ptr %11, null
  br i1 %.not10, label %16, label %12

12:                                               ; preds = %8
  %13 = load ptr, ptr %6, align 8, !tbaa !84
  %14 = tail call ptr @g_type_check_instance_cast(ptr noundef %13, i64 noundef 80) #19
  %15 = tail call i64 @g_signal_connect_data(ptr noundef %14, ptr noundef nonnull @.str.114, ptr noundef nonnull @_lib_draw_callback, ptr noundef nonnull %0, ptr noundef null, i32 noundef 0) #19
  br label %16

16:                                               ; preds = %3, %12, %8, %1
  ret void
}